target datalayout = "e-m:e-p270:32:32-p271:32:32-p272:64:64-i64:64-i128:128-f80:128-n8:16:32:64-S128"
target triple = "x86_64-pc-linux-gnu"

%struct.expert_field = type { i32, i32 }

@ei_gsm_a_rr_missing_mandatory_element = internal global %struct.expert_field zeroinitializer, align 4
@.str.83 = private unnamed_addr constant [62 x i8] c"Missing Mandatory element %s%s, rest of dissection is suspect\00", align 1
@.str.84 = private unnamed_addr constant [1 x i8] zeroinitializer, align 1
@.str.1839 = private unnamed_addr constant [64 x i8] c"Missing Mandatory elements %s %s, rest of dissection is suspect\00", align 1
@.str.1864 = private unnamed_addr constant [21 x i8] c" - Mobile Identity 1\00", align 1
@.str.1865 = private unnamed_addr constant [21 x i8] c" - Mobile Identity 2\00", align 1

; Function Attrs: null_pointer_is_valid sspstrong uwtable
define internal void @dtap_rr_paging_req_type_1(ptr noundef %0, ptr noundef %1, ptr noundef %2, i32 noundef %3, i32 noundef %4) #1 {
  %6 = alloca ptr, align 8
  %7 = alloca ptr, align 8
  %8 = alloca ptr, align 8
  %9 = alloca i32, align 4
  %10 = alloca i32, align 4
  %11 = alloca i32, align 4
  %12 = alloca i32, align 4
  %13 = alloca i32, align 4
  %14 = alloca i8, align 1
  %15 = alloca i32, align 4
  store ptr %0, ptr %6, align 8
  store ptr %1, ptr %7, align 8
  store ptr %2, ptr %8, align 8
  store i32 %3, ptr %9, align 4
  store i32 %4, ptr %10, align 4
  call void @llvm.lifetime.start.p0(i64 4, ptr %11) #11
  call void @llvm.lifetime.start.p0(i64 4, ptr %12) #11
  call void @llvm.lifetime.start.p0(i64 4, ptr %13) #11
  call void @llvm.lifetime.start.p0(i64 1, ptr %14) #11
  %16 = load ptr, ptr %6, align 8
  %17 = call zeroext i8 @tvb_get_uint8(ptr noundef %16, i32 noundef 0)
  %18 = zext i8 %17 to i32
  %19 = ashr i32 %18, 2
  %20 = trunc i32 %19 to i8
  store i8 %20, ptr %14, align 1
  %21 = load i32, ptr %9, align 4
  store i32 %21, ptr %11, align 4
  %22 = load i32, ptr %10, align 4
  store i32 %22, ptr %13, align 4
  %23 = load i32, ptr %13, align 4
  %24 = icmp sgt i32 %23, 0
  br i1 %24, label %25, label %40

25:                                               ; preds = %5
  %26 = load ptr, ptr %6, align 8
  %27 = load ptr, ptr %7, align 8
  %28 = load ptr, ptr %8, align 8
  %29 = load i32, ptr %11, align 4
  %30 = call zeroext i16 @elem_v_short(ptr noundef %26, ptr noundef %27, ptr noundef %28, i32 noundef 3, i32 noundef 49, i32 noundef %29, i32 noundef 1)
  %31 = load ptr, ptr %6, align 8
  %32 = load ptr, ptr %7, align 8
  %33 = load ptr, ptr %8, align 8
  %34 = load i32, ptr %11, align 4
  %35 = call zeroext i16 @elem_v_short(ptr noundef %31, ptr noundef %32, ptr noundef %33, i32 noundef 3, i32 noundef 16, i32 noundef %34, i32 noundef 2)
  %36 = load i32, ptr %11, align 4
  %37 = add i32 %36, 1
  store i32 %37, ptr %11, align 4
  %38 = load i32, ptr %13, align 4
  %39 = add i32 %38, -1
  store i32 %39, ptr %13, align 4
  br label %48

40:                                               ; preds = %5
  %41 = load ptr, ptr %7, align 8
  %42 = load ptr, ptr %8, align 8
  %43 = load ptr, ptr %6, align 8
  %44 = load i32, ptr %11, align 4
  %45 = call ptr @get_gsm_a_msg_string(i32 noundef 3, i32 noundef 49)
  %46 = call ptr @get_gsm_a_msg_string(i32 noundef 3, i32 noundef 16)
  %47 = call ptr (ptr, ptr, ptr, ptr, i32, i32, ptr, ...) @proto_tree_add_expert_format(ptr noundef %41, ptr noundef %42, ptr noundef @ei_gsm_a_rr_missing_mandatory_element, ptr noundef %43, i32 noundef %44, i32 noundef 0, ptr noundef @.str.1839, ptr noundef %45, ptr noundef %46)
  br label %48

48:                                               ; preds = %40, %25
  %49 = load i32, ptr %13, align 4
  %50 = icmp sgt i32 %49, 0
  br i1 %50, label %51, label %67

51:                                               ; preds = %48
  %52 = load ptr, ptr %6, align 8
  %53 = load ptr, ptr %7, align 8
  %54 = load ptr, ptr %8, align 8
  %55 = load i32, ptr %11, align 4
  %56 = load i32, ptr %13, align 4
  %57 = call zeroext i16 @elem_lv(ptr noundef %52, ptr noundef %53, ptr noundef %54, i32 noundef 4, i32 noundef 3, i32 noundef %55, i32 noundef %56, ptr noundef @.str.1864)
  %58 = zext i16 %57 to i32
  store i32 %58, ptr %12, align 4
  %59 = icmp ugt i32 %58, 0
  br i1 %59, label %60, label %67

60:                                               ; preds = %51
  %61 = load i32, ptr %12, align 4
  %62 = load i32, ptr %11, align 4
  %63 = add i32 %62, %61
  store i32 %63, ptr %11, align 4
  %64 = load i32, ptr %12, align 4
  %65 = load i32, ptr %13, align 4
  %66 = sub i32 %65, %64
  store i32 %66, ptr %13, align 4
  br label %74

67:                                               ; preds = %51, %48
  %68 = load ptr, ptr %7, align 8
  %69 = load ptr, ptr %8, align 8
  %70 = load ptr, ptr %6, align 8
  %71 = load i32, ptr %11, align 4
  %72 = call ptr @get_gsm_a_msg_string(i32 noundef 4, i32 noundef 3)
  %73 = call ptr (ptr, ptr, ptr, ptr, i32, i32, ptr, ...) @proto_tree_add_expert_format(ptr noundef %68, ptr noundef %69, ptr noundef @ei_gsm_a_rr_missing_mandatory_element, ptr noundef %70, i32 noundef %71, i32 noundef 0, ptr noundef @.str.83, ptr noundef %72, ptr noundef @.str.1864)
  br label %74

74:                                               ; preds = %67, %60
  %75 = load i32, ptr %13, align 4
  %76 = icmp sle i32 %75, 0
  br i1 %76, label %77, label %78

77:                                               ; preds = %74
  store i32 1, ptr %15, align 4
  br label %125

78:                                               ; preds = %74
  %79 = load ptr, ptr %6, align 8
  %80 = load ptr, ptr %7, align 8
  %81 = load ptr, ptr %8, align 8
  %82 = load i32, ptr %11, align 4
  %83 = load i32, ptr %13, align 4
  %84 = call zeroext i16 @elem_tlv(ptr noundef %79, ptr noundef %80, ptr noundef %81, i8 noundef zeroext 23, i32 noundef 4, i32 noundef 3, i32 noundef %82, i32 noundef %83, ptr noundef @.str.1865)
  %85 = zext i16 %84 to i32
  store i32 %85, ptr %12, align 4
  %86 = icmp ugt i32 %85, 0
  br i1 %86, label %87, label %94

87:                                               ; preds = %78
  %88 = load i32, ptr %12, align 4
  %89 = load i32, ptr %11, align 4
  %90 = add i32 %89, %88
  store i32 %90, ptr %11, align 4
  %91 = load i32, ptr %12, align 4
  %92 = load i32, ptr %13, align 4
  %93 = sub i32 %92, %91
  store i32 %93, ptr %13, align 4
  br label %94

94:                                               ; preds = %87, %78
  %95 = load i8, ptr %14, align 1
  %96 = zext i8 %95 to i32
  %97 = icmp slt i32 %96, 22
  br i1 %97, label %98, label %124

98:                                               ; preds = %94
  %99 = load i32, ptr %13, align 4
  %100 = icmp sgt i32 %99, 0
  br i1 %100, label %101, label %116

101:                                              ; preds = %98
  %102 = load ptr, ptr %6, align 8
  %103 = load ptr, ptr %7, align 8
  %104 = load ptr, ptr %8, align 8
  %105 = load i32, ptr %11, align 4
  %106 = call zeroext i16 @elem_v(ptr noundef %102, ptr noundef %103, ptr noundef %104, i32 noundef 3, i32 noundef 41, i32 noundef %105, ptr noundef null)
  %107 = zext i16 %106 to i32
  store i32 %107, ptr %12, align 4
  %108 = icmp ugt i32 %107, 0
  br i1 %108, label %109, label %116

109:                                              ; preds = %101
  %110 = load i32, ptr %12, align 4
  %111 = load i32, ptr %11, align 4
  %112 = add i32 %111, %110
  store i32 %112, ptr %11, align 4
  %113 = load i32, ptr %12, align 4
  %114 = load i32, ptr %13, align 4
  %115 = sub i32 %114, %113
  store i32 %115, ptr %13, align 4
  br label %123

116:                                              ; preds = %101, %98
  %117 = load ptr, ptr %7, align 8
  %118 = load ptr, ptr %8, align 8
  %119 = load ptr, ptr %6, align 8
  %120 = load i32, ptr %11, align 4
  %121 = call ptr @get_gsm_a_msg_string(i32 noundef 3, i32 noundef 41)
  %122 = call ptr (ptr, ptr, ptr, ptr, i32, i32, ptr, ...) @proto_tree_add_expert_format(ptr noundef %117, ptr noundef %118, ptr noundef @ei_gsm_a_rr_missing_mandatory_element, ptr noundef %119, i32 noundef %120, i32 noundef 0, ptr noundef @.str.83, ptr noundef %121, ptr noundef @.str.84)
  br label %123

123:                                              ; preds = %116, %109
  br label %124

124:                                              ; preds = %123, %94
  store i32 0, ptr %15, align 4
  br label %125

125:                                              ; preds = %124, %77
  call void @llvm.lifetime.end.p0(i64 1, ptr %14) #11
  call void @llvm.lifetime.end.p0(i64 4, ptr %13) #11
  call void @llvm.lifetime.end.p0(i64 4, ptr %12) #11
  call void @llvm.lifetime.end.p0(i64 4, ptr %11) #11
  %126 = load i32, ptr %15, align 4
  switch i32 %126, label %128 [
    i32 0, label %127
    i32 1, label %127
  ]

127:                                              ; preds = %125, %125
  ret void

128:                                              ; preds = %125
  unreachable
}