; Function Attrs: null_pointer_is_valid sspstrong uwtable
define internal void @dtap_rr_paging_req_type_1(ptr noundef %0, ptr noundef %1, ptr noundef %2, i32 noundef %3, i32 noundef %4) #3 {
  %6 = tail call zeroext i8 @tvb_get_uint8(ptr noundef %0, i32 noundef 0)
  %7 = icmp sgt i32 %4, 0
  br i1 %7, label %11, label %.thread

.thread:                                          ; preds = %5
  %8 = tail call ptr @get_gsm_a_msg_string(i32 noundef 3, i32 noundef 49)
  %9 = tail call ptr @get_gsm_a_msg_string(i32 noundef 3, i32 noundef 16)
  %10 = tail call ptr (ptr, ptr, ptr, ptr, i32, i32, ptr, ...) @proto_tree_add_expert_format(ptr noundef %1, ptr noundef %2, ptr noundef nonnull @ei_gsm_a_rr_missing_mandatory_element, ptr noundef %0, i32 noundef %3, i32 noundef 0, ptr noundef nonnull @.str.1839, ptr noundef %8, ptr noundef %9)
  br label %22

11:                                               ; preds = %5
  %12 = tail call zeroext i16 @elem_v_short(ptr noundef %0, ptr noundef %1, ptr noundef %2, i32 noundef 3, i32 noundef 49, i32 noundef %3, i32 noundef 1)
  %13 = tail call zeroext i16 @elem_v_short(ptr noundef %0, ptr noundef %1, ptr noundef %2, i32 noundef 3, i32 noundef 16, i32 noundef %3, i32 noundef 2)
  %14 = add i32 %3, 1
  %15 = add nsw i32 %4, -1
  %.not68 = icmp eq i32 %15, 0
  br i1 %.not68, label %22, label %16

16:                                               ; preds = %11
  %17 = tail call zeroext i16 @elem_lv(ptr noundef %0, ptr noundef %1, ptr noundef %2, i32 noundef 4, i32 noundef 3, i32 noundef %14, i32 noundef %15, ptr noundef nonnull @.str.1864)
  %.not = icmp eq i16 %17, 0
  br i1 %.not, label %22, label %18

18:                                               ; preds = %16
  %19 = zext i16 %17 to i32
  %20 = add i32 %14, %19
  %21 = sub nsw i32 %15, %19
  br label %25

22:                                               ; preds = %.thread, %16, %11
  %.067 = phi i32 [ %3, %.thread ], [ %14, %16 ], [ %14, %11 ]
  %.05566 = phi i32 [ %4, %.thread ], [ %15, %16 ], [ 0, %11 ]
  %23 = tail call ptr @get_gsm_a_msg_string(i32 noundef 4, i32 noundef 3)
  %24 = tail call ptr (ptr, ptr, ptr, ptr, i32, i32, ptr, ...) @proto_tree_add_expert_format(ptr noundef %1, ptr noundef %2, ptr noundef nonnull @ei_gsm_a_rr_missing_mandatory_element, ptr noundef %0, i32 noundef %.067, i32 noundef 0, ptr noundef nonnull @.str.83, ptr noundef %23, ptr noundef nonnull @.str.1864)
  br label %25

25:                                               ; preds = %22, %18
  %.156 = phi i32 [ %21, %18 ], [ %.05566, %22 ]
  %.1 = phi i32 [ %20, %18 ], [ %.067, %22 ]
  %26 = icmp slt i32 %.156, 1
  br i1 %26, label %39, label %27

27:                                               ; preds = %25
  %28 = tail call zeroext i16 @elem_tlv(ptr noundef %0, ptr noundef %1, ptr noundef %2, i8 noundef zeroext 23, i32 noundef 4, i32 noundef 3, i32 noundef %.1, i32 noundef %.156, ptr noundef nonnull @.str.1865)
  %29 = zext i16 %28 to i32
  %30 = add i32 %.1, %29
  %31 = icmp ult i8 %6, 88
  br i1 %31, label %32, label %39

32:                                               ; preds = %27
  %.not62 = icmp eq i16 %28, 0
  %33 = icmp samesign ugt i32 %.156, %29
  %.257 = select i1 %.not62, i1 true, i1 %33
  br i1 %.257, label %34, label %36

34:                                               ; preds = %32
  %35 = tail call zeroext i16 @elem_v(ptr noundef %0, ptr noundef %1, ptr noundef %2, i32 noundef 3, i32 noundef 41, i32 noundef %30, ptr noundef null)
  %.not63 = icmp eq i16 %35, 0
  br i1 %.not63, label %36, label %39

36:                                               ; preds = %34, %32
  %37 = tail call ptr @get_gsm_a_msg_string(i32 noundef 3, i32 noundef 41)
  %38 = tail call ptr (ptr, ptr, ptr, ptr, i32, i32, ptr, ...) @proto_tree_add_expert_format(ptr noundef %1, ptr noundef %2, ptr noundef nonnull @ei_gsm_a_rr_missing_mandatory_element, ptr noundef %0, i32 noundef %30, i32 noundef 0, ptr noundef nonnull @.str.83, ptr noundef %37, ptr noundef nonnull @.str.84)
  br label %39

39:                                               ; preds = %27, %36, %34, %25
  ret void
}